; Function Attrs: nounwind uwtable
define internal ptr @_lsprof_Profiler_getstats(ptr noundef captures(none) %0, ptr noundef readonly captures(none) %1, ptr readnone captures(none) %2, i64 noundef %3, ptr noundef readonly %4) #0 {
  %6 = alloca %struct.statscollector_t, align 8
  %.not = icmp eq i64 %3, 0
  br i1 %.not, label %7, label %10

7:                                                ; preds = %5
  %.not6 = icmp eq ptr %4, null
  br i1 %.not6, label %12, label %8

8:                                                ; preds = %7
  %9 = getelementptr i8, ptr %4, i64 16
  %.val = load i64, ptr %9, align 8, !tbaa !43
  %.not7 = icmp eq i64 %.val, 0
  br i1 %.not7, label %12, label %10

10:                                               ; preds = %8, %5
  %11 = load ptr, ptr @PyExc_TypeError, align 8, !tbaa !48
  tail call void @PyErr_SetString(ptr noundef %11, ptr noundef nonnull @.str.15) #5
  br label %47

12:                                               ; preds = %8, %7
  %13 = getelementptr i8, ptr %1, i64 888
  %.val8 = load ptr, ptr %13, align 8, !tbaa !54
  %14 = getelementptr i8, ptr %.val8, i64 32
  %.val8.val = load ptr, ptr %14, align 8, !tbaa !62
  call void @llvm.lifetime.start.p0(i64 32, ptr nonnull %6) #5
  %15 = getelementptr inbounds nuw i8, ptr %6, i64 24
  store ptr %.val8.val, ptr %15, align 8, !tbaa !65
  %16 = getelementptr inbounds nuw i8, ptr %0, i64 40
  %17 = load i32, ptr %16, align 8, !tbaa !26
  %18 = and i32 %17, 256
  %.not.i10.i = icmp eq i32 %18, 0
  br i1 %.not.i10.i, label %21, label %pending_exception.exit.i

pending_exception.exit.i:                         ; preds = %12
  %19 = add nsw i32 %17, -256
  store i32 %19, ptr %16, align 8, !tbaa !26
  %20 = load ptr, ptr @PyExc_MemoryError, align 8, !tbaa !48
  tail call void @PyErr_SetString(ptr noundef %20, ptr noundef nonnull @.str.16) #5
  br label %_lsprof_Profiler_getstats_impl.exit

21:                                               ; preds = %12
  %22 = getelementptr inbounds nuw i8, ptr %0, i64 48
  %23 = load ptr, ptr %22, align 8, !tbaa !41
  %.not8.i = icmp eq ptr %23, null
  br i1 %.not8.i, label %28, label %24

24:                                               ; preds = %21
  %25 = getelementptr inbounds nuw i8, ptr %0, i64 56
  %26 = load double, ptr %25, align 8, !tbaa !51
  %27 = fcmp oeq double %26, 0.000000e+00
  br i1 %27, label %28, label %32

28:                                               ; preds = %24, %21
  %29 = tail call i64 @_PyTime_FromSeconds(i32 noundef 1) #5
  %30 = sitofp i64 %29 to double
  %31 = fdiv double 1.000000e+00, %30
  br label %32

32:                                               ; preds = %28, %24
  %.sink.i = phi double [ %31, %28 ], [ %26, %24 ]
  %33 = getelementptr inbounds nuw i8, ptr %6, i64 16
  store double %.sink.i, ptr %33, align 8, !tbaa !67
  %34 = tail call ptr @PyList_New(i64 noundef 0) #5
  store ptr %34, ptr %6, align 8, !tbaa !68
  %35 = icmp eq ptr %34, null
  br i1 %35, label %_lsprof_Profiler_getstats_impl.exit, label %36

36:                                               ; preds = %32
  %37 = getelementptr inbounds nuw i8, ptr %0, i64 16
  %38 = load ptr, ptr %37, align 8, !tbaa !38
  %39 = call i32 @RotatingTree_Enum(ptr noundef %38, ptr noundef nonnull @statsForEntry, ptr noundef nonnull %6) #5
  %.not9.i = icmp eq i32 %39, 0
  %40 = load ptr, ptr %6, align 8, !tbaa !68
  br i1 %.not9.i, label %_lsprof_Profiler_getstats_impl.exit, label %41

41:                                               ; preds = %36
  %42 = load i32, ptr %40, align 8, !tbaa !9
  %.not.i.i = icmp sgt i32 %42, -1
  br i1 %.not.i.i, label %43, label %_lsprof_Profiler_getstats_impl.exit

43:                                               ; preds = %41
  %44 = add nsw i32 %42, -1
  store i32 %44, ptr %40, align 8, !tbaa !9
  %45 = icmp eq i32 %44, 0
  br i1 %45, label %46, label %_lsprof_Profiler_getstats_impl.exit

46:                                               ; preds = %43
  call void @_Py_Dealloc(ptr noundef nonnull %40) #5
  br label %_lsprof_Profiler_getstats_impl.exit

_lsprof_Profiler_getstats_impl.exit:              ; preds = %pending_exception.exit.i, %32, %36, %41, %43, %46
  %.0.i = phi ptr [ null, %pending_exception.exit.i ], [ null, %32 ], [ null, %41 ], [ null, %43 ], [ null, %46 ], [ %40, %36 ]
  call void @llvm.lifetime.end.p0(i64 32, ptr nonnull %6) #5
  br label %47

47:                                               ; preds = %_lsprof_Profiler_getstats_impl.exit, %10
  %.0 = phi ptr [ null, %10 ], [ %.0.i, %_lsprof_Profiler_getstats_impl.exit ]
  ret ptr %.0
}